; Function Attrs: nofree nounwind uwtable
define void @Acec_VerifyBoxLeaves(ptr noundef readonly captures(none) %0, ptr noundef readonly %1) local_unnamed_addr #2 {
  %3 = icmp eq ptr %1, null
  br i1 %3, label %47, label %.preheader

.preheader:                                       ; preds = %2
  %4 = getelementptr inbounds nuw i8, ptr %0, i64 16
  %5 = load ptr, ptr %4, align 8
  %6 = getelementptr i8, ptr %5, i64 4
  %.val34 = load i32, ptr %6, align 4
  %7 = icmp sgt i32 %.val34, 0
  br i1 %7, label %.lr.ph37, label %.critedge

.lr.ph37:                                         ; preds = %.preheader
  %8 = getelementptr i8, ptr %1, i64 8
  br label %9

9:                                                ; preds = %.lr.ph37, %.critedge2
  %10 = phi ptr [ %5, %.lr.ph37 ], [ %42, %.critedge2 ]
  %indvars.iv40 = phi i64 [ 0, %.lr.ph37 ], [ %indvars.iv.next41, %.critedge2 ]
  %.036 = phi i32 [ 0, %.lr.ph37 ], [ %.1.lcssa, %.critedge2 ]
  %11 = getelementptr i8, ptr %10, i64 8
  %.val24 = load ptr, ptr %11, align 8
  %12 = getelementptr inbounds nuw %struct.Vec_Int_t_, ptr %.val24, i64 %indvars.iv40
  %13 = getelementptr i8, ptr %12, i64 4
  %.val2531 = load i32, ptr %13, align 4
  %14 = icmp sgt i32 %.val2531, 0
  br i1 %14, label %.lr.ph, label %.critedge2

.lr.ph:                                           ; preds = %9
  %15 = getelementptr i8, ptr %12, i64 8
  %16 = trunc nuw nsw i64 %indvars.iv40 to i32
  br label %17

17:                                               ; preds = %.lr.ph, %39
  %.val2543 = phi i32 [ %.val2531, %.lr.ph ], [ %.val25, %39 ]
  %indvars.iv = phi i64 [ 0, %.lr.ph ], [ %indvars.iv.next, %39 ]
  %.133 = phi i32 [ %.036, %.lr.ph ], [ %.2, %39 ]
  %.val26 = load ptr, ptr %15, align 8
  %18 = getelementptr inbounds nuw i32, ptr %.val26, i64 %indvars.iv
  %19 = load i32, ptr %18, align 4
  %20 = load ptr, ptr %0, align 8
  %21 = ashr i32 %19, 1
  %22 = getelementptr i8, ptr %20, i64 32
  %.val27 = load ptr, ptr %22, align 8
  %23 = sext i32 %21 to i64
  %24 = getelementptr inbounds %struct.Gia_Obj_t_, ptr %.val27, i64 %23
  %.val28 = load i64, ptr %24, align 4
  %25 = and i64 %.val28, 2147483648
  %.not.i = icmp ne i64 %25, 0
  %26 = and i64 %.val28, 536870911
  %27 = icmp eq i64 %26, 536870911
  %narrow.i.not = or i1 %.not.i, %27
  br i1 %narrow.i.not, label %39, label %28

28:                                               ; preds = %17
  %.val29 = load ptr, ptr %8, align 8
  %29 = ashr i32 %19, 6
  %30 = sext i32 %29 to i64
  %31 = getelementptr inbounds i32, ptr %.val29, i64 %30
  %32 = load i32, ptr %31, align 4
  %33 = and i32 %21, 31
  %34 = shl nuw i32 1, %33
  %35 = and i32 %32, %34
  %.not23 = icmp eq i32 %35, 0
  br i1 %.not23, label %36, label %39

36:                                               ; preds = %28
  %37 = tail call i32 (ptr, ...) @printf(ptr noundef nonnull dereferenceable(1) @.str, i32 noundef %21, i32 noundef %16)
  %38 = add nsw i32 %.133, 1
  %.val25.pre = load i32, ptr %13, align 4
  br label %39

39:                                               ; preds = %17, %28, %36
  %.val25 = phi i32 [ %.val2543, %28 ], [ %.val25.pre, %36 ], [ %.val2543, %17 ]
  %.2 = phi i32 [ %.133, %28 ], [ %38, %36 ], [ %.133, %17 ]
  %indvars.iv.next = add nuw nsw i64 %indvars.iv, 1
  %40 = sext i32 %.val25 to i64
  %41 = icmp slt i64 %indvars.iv.next, %40
  br i1 %41, label %17, label %.critedge2.loopexit, !llvm.loop !6

.critedge2.loopexit:                              ; preds = %39
  %.pre = load ptr, ptr %4, align 8
  br label %.critedge2

.critedge2:                                       ; preds = %.critedge2.loopexit, %9
  %42 = phi ptr [ %10, %9 ], [ %.pre, %.critedge2.loopexit ]
  %.1.lcssa = phi i32 [ %.036, %9 ], [ %.2, %.critedge2.loopexit ]
  %indvars.iv.next41 = add nuw nsw i64 %indvars.iv40, 1
  %43 = getelementptr i8, ptr %42, i64 4
  %.val = load i32, ptr %43, align 4
  %44 = sext i32 %.val to i64
  %45 = icmp slt i64 %indvars.iv.next41, %44
  br i1 %45, label %9, label %.critedge, !llvm.loop !7

.critedge:                                        ; preds = %.critedge2, %.preheader
  %.0.lcssa = phi i32 [ 0, %.preheader ], [ %.1.lcssa, %.critedge2 ]
  %46 = tail call i32 (ptr, ...) @printf(ptr noundef nonnull dereferenceable(1) @.str.1, i32 noundef %.0.lcssa)
  br label %47

47:                                               ; preds = %2, %.critedge
  ret void
}